target datalayout = "e-m:e-p270:32:32-p271:32:32-p272:64:64-i64:64-i128:128-f80:128-n8:16:32:64-S128"
target triple = "x86_64-pc-linux-gnu"

%struct.opj_bio = type { ptr, ptr, ptr, i32, i32 }

; Function Attrs: nounwind uwtable
define hidden i64 @opj_bio_numbytes(ptr noundef %0) #0 {
  %2 = alloca ptr, align 8
  store ptr %0, ptr %2, align 8, !tbaa !3
  %3 = load ptr, ptr %2, align 8, !tbaa !3
  %4 = getelementptr inbounds nuw %struct.opj_bio, ptr %3, i32 0, i32 2
  %5 = load ptr, ptr %4, align 8, !tbaa !8
  %6 = load ptr, ptr %2, align 8, !tbaa !3
  %7 = getelementptr inbounds nuw %struct.opj_bio, ptr %6, i32 0, i32 0
  %8 = load ptr, ptr %7, align 8, !tbaa !12
  %9 = ptrtoint ptr %5 to i64
  %10 = ptrtoint ptr %8 to i64
  %11 = sub i64 %9, %10
  ret i64 %11
}